target datalayout = "e-m:e-p270:32:32-p271:32:32-p272:64:64-i64:64-i128:128-f80:128-n8:16:32:64-S128"
target triple = "x86_64-pc-linux-gnu"

; Function Attrs: nounwind uwtable
define void @Abc_ConvertSopToBdd2Count(ptr noundef %0, i32 noundef %1, i32 noundef %2, i32 noundef %3, ptr noundef %4) #0 {
  %6 = alloca ptr, align 8
  %7 = alloca i32, align 4
  %8 = alloca i32, align 4
  %9 = alloca i32, align 4
  %10 = alloca ptr, align 8
  %11 = alloca i32, align 4
  store ptr %0, ptr %6, align 8, !tbaa !3
  store i32 %1, ptr %7, align 4, !tbaa !8
  store i32 %2, ptr %8, align 4, !tbaa !8
  store i32 %3, ptr %9, align 4, !tbaa !8
  store ptr %4, ptr %10, align 8, !tbaa !10
  call void @llvm.lifetime.start.p0(i64 4, ptr %11) #10
  store i32 0, ptr %11, align 4, !tbaa !8
  br label %12

12:                                               ; preds = %71, %5
  %13 = load i32, ptr %11, align 4, !tbaa !8
  %14 = load i32, ptr %7, align 4, !tbaa !8
  %15 = icmp slt i32 %13, %14
  br i1 %15, label %16, label %74

16:                                               ; preds = %12
  %17 = load ptr, ptr %6, align 8, !tbaa !3
  %18 = load i32, ptr %11, align 4, !tbaa !8
  %19 = load i32, ptr %8, align 4, !tbaa !8
  %20 = mul nsw i32 %18, %19
  %21 = load i32, ptr %9, align 4, !tbaa !8
  %22 = add nsw i32 %20, %21
  %23 = sext i32 %22 to i64
  %24 = getelementptr inbounds i8, ptr %17, i64 %23
  %25 = load i8, ptr %24, align 1, !tbaa !12
  %26 = sext i8 %25 to i32
  %27 = icmp eq i32 %26, 45
  br i1 %27, label %28, label %33

28:                                               ; preds = %16
  %29 = load ptr, ptr %10, align 8, !tbaa !10
  %30 = getelementptr inbounds i32, ptr %29, i64 0
  %31 = load i32, ptr %30, align 4, !tbaa !8
  %32 = add nsw i32 %31, 1
  store i32 %32, ptr %30, align 4, !tbaa !8
  br label %70

33:                                               ; preds = %16
  %34 = load ptr, ptr %6, align 8, !tbaa !3
  %35 = load i32, ptr %11, align 4, !tbaa !8
  %36 = load i32, ptr %8, align 4, !tbaa !8
  %37 = mul nsw i32 %35, %36
  %38 = load i32, ptr %9, align 4, !tbaa !8
  %39 = add nsw i32 %37, %38
  %40 = sext i32 %39 to i64
  %41 = getelementptr inbounds i8, ptr %34, i64 %40
  %42 = load i8, ptr %41, align 1, !tbaa !12
  %43 = sext i8 %42 to i32
  %44 = icmp eq i32 %43, 48
  br i1 %44, label %45, label %50

45:                                               ; preds = %33
  %46 = load ptr, ptr %10, align 8, !tbaa !10
  %47 = getelementptr inbounds i32, ptr %46, i64 1
  %48 = load i32, ptr %47, align 4, !tbaa !8
  %49 = add nsw i32 %48, 1
  store i32 %49, ptr %47, align 4, !tbaa !8
  br label %69

50:                                               ; preds = %33
  %51 = load ptr, ptr %6, align 8, !tbaa !3
  %52 = load i32, ptr %11, align 4, !tbaa !8
  %53 = load i32, ptr %8, align 4, !tbaa !8
  %54 = mul nsw i32 %52, %53
  %55 = load i32, ptr %9, align 4, !tbaa !8
  %56 = add nsw i32 %54, %55
  %57 = sext i32 %56 to i64
  %58 = getelementptr inbounds i8, ptr %51, i64 %57
  %59 = load i8, ptr %58, align 1, !tbaa !12
  %60 = sext i8 %59 to i32
  %61 = icmp eq i32 %60, 49
  br i1 %61, label %62, label %67

62:                                               ; preds = %50
  %63 = load ptr, ptr %10, align 8, !tbaa !10
  %64 = getelementptr inbounds i32, ptr %63, i64 2
  %65 = load i32, ptr %64, align 4, !tbaa !8
  %66 = add nsw i32 %65, 1
  store i32 %66, ptr %64, align 4, !tbaa !8
  br label %68

67:                                               ; preds = %50
  br label %68

68:                                               ; preds = %67, %62
  br label %69

69:                                               ; preds = %68, %45
  br label %70

70:                                               ; preds = %69, %28
  br label %71

71:                                               ; preds = %70
  %72 = load i32, ptr %11, align 4, !tbaa !8
  %73 = add nsw i32 %72, 1
  store i32 %73, ptr %11, align 4, !tbaa !8
  br label %12, !llvm.loop !13

74:                                               ; preds = %12
  call void @llvm.lifetime.end.p0(i64 4, ptr %11) #10
  ret void
}

; Function Attrs: nounwind uwtable
define ptr @Abc_ConvertSopToBdd2_rec(ptr noundef %0, ptr noundef %1, ptr noundef %2, i32 noundef %3, i32 noundef %4, i32 noundef %5) #0 {
  %7 = alloca ptr, align 8
  %8 = alloca ptr, align 8
  %9 = alloca ptr, align 8
  %10 = alloca ptr, align 8
  %11 = alloca i32, align 4
  %12 = alloca i32, align 4
  %13 = alloca i32, align 4
  %14 = alloca [5 x ptr], align 16
  %15 = alloca [3 x i32], align 4
  %16 = alloca i32, align 4
  %17 = alloca i32, align 4
  %18 = alloca i32, align 4
  store ptr %0, ptr %8, align 8, !tbaa !15
  store ptr %1, ptr %9, align 8, !tbaa !3
  store ptr %2, ptr %10, align 8, !tbaa !17
  store i32 %3, ptr %11, align 4, !tbaa !8
  store i32 %4, ptr %12, align 4, !tbaa !8
  store i32 %5, ptr %13, align 4, !tbaa !8
  call void @llvm.lifetime.start.p0(i64 40, ptr %14) #10
  call void @llvm.memset.p0.i64(ptr align 16 %14, i8 0, i64 40, i1 false)
  call void @llvm.lifetime.start.p0(i64 12, ptr %15) #10
  call void @llvm.memset.p0.i64(ptr align 4 %15, i8 0, i64 12, i1 false)
  call void @llvm.lifetime.start.p0(i64 4, ptr %16) #10
  call void @llvm.lifetime.start.p0(i64 4, ptr %17) #10
  store i32 0, ptr %17, align 4, !tbaa !8
  %19 = load i32, ptr %11, align 4, !tbaa !8
  %20 = icmp eq i32 %19, 0
  br i1 %20, label %21, label %24

21:                                               ; preds = %6
  %22 = load ptr, ptr %8, align 8, !tbaa !15
  %23 = call ptr @Cudd_ReadLogicZero(ptr noundef %22)
  store ptr %23, ptr %7, align 8
  store i32 1, ptr %18, align 4
  br label %113

24:                                               ; preds = %6
  %25 = load i32, ptr %13, align 4, !tbaa !8
  %26 = load i32, ptr %12, align 4, !tbaa !8
  %27 = sub nsw i32 %26, 3
  %28 = icmp eq i32 %25, %27
  br i1 %28, label %29, label %32

29:                                               ; preds = %24
  %30 = load ptr, ptr %8, align 8, !tbaa !15
  %31 = call ptr @Cudd_ReadOne(ptr noundef %30)
  store ptr %31, ptr %7, align 8
  store i32 1, ptr %18, align 4
  br label %113

32:                                               ; preds = %24
  %33 = load ptr, ptr %9, align 8, !tbaa !3
  %34 = load i32, ptr %11, align 4, !tbaa !8
  %35 = load i32, ptr %12, align 4, !tbaa !8
  %36 = load i32, ptr %13, align 4, !tbaa !8
  %37 = getelementptr inbounds [3 x i32], ptr %15, i64 0, i64 0
  call void @Abc_ConvertSopToBdd2Count(ptr noundef %33, i32 noundef %34, i32 noundef %35, i32 noundef %36, ptr noundef %37)
  store i32 0, ptr %16, align 4, !tbaa !8
  br label %38

38:                                               ; preds = %65, %32
  %39 = load i32, ptr %16, align 4, !tbaa !8
  %40 = icmp slt i32 %39, 3
  br i1 %40, label %41, label %73

41:                                               ; preds = %38
  %42 = load ptr, ptr %8, align 8, !tbaa !15
  %43 = load ptr, ptr %9, align 8, !tbaa !3
  %44 = load i32, ptr %17, align 4, !tbaa !8
  %45 = load i32, ptr %12, align 4, !tbaa !8
  %46 = mul nsw i32 %44, %45
  %47 = sext i32 %46 to i64
  %48 = getelementptr inbounds i8, ptr %43, i64 %47
  %49 = load ptr, ptr %10, align 8, !tbaa !17
  %50 = load i32, ptr %16, align 4, !tbaa !8
  %51 = sext i32 %50 to i64
  %52 = getelementptr inbounds [3 x i32], ptr %15, i64 0, i64 %51
  %53 = load i32, ptr %52, align 4, !tbaa !8
  %54 = load i32, ptr %12, align 4, !tbaa !8
  %55 = load i32, ptr %13, align 4, !tbaa !8
  %56 = add nsw i32 %55, 1
  %57 = call ptr @Abc_ConvertSopToBdd2_rec(ptr noundef %42, ptr noundef %48, ptr noundef %49, i32 noundef %53, i32 noundef %54, i32 noundef %56)
  %58 = load i32, ptr %16, align 4, !tbaa !8
  %59 = sext i32 %58 to i64
  %60 = getelementptr inbounds [5 x ptr], ptr %14, i64 0, i64 %59
  store ptr %57, ptr %60, align 8, !tbaa !19
  %61 = load i32, ptr %16, align 4, !tbaa !8
  %62 = sext i32 %61 to i64
  %63 = getelementptr inbounds [5 x ptr], ptr %14, i64 0, i64 %62
  %64 = load ptr, ptr %63, align 8, !tbaa !19
  call void @Cudd_Ref(ptr noundef %64)
  br label %65

65:                                               ; preds = %41
  %66 = load i32, ptr %16, align 4, !tbaa !8
  %67 = add nsw i32 %66, 1
  store i32 %67, ptr %16, align 4, !tbaa !8
  %68 = sext i32 %66 to i64
  %69 = getelementptr inbounds [3 x i32], ptr %15, i64 0, i64 %68
  %70 = load i32, ptr %69, align 4, !tbaa !8
  %71 = load i32, ptr %17, align 4, !tbaa !8
  %72 = add nsw i32 %71, %70
  store i32 %72, ptr %17, align 4, !tbaa !8
  br label %38, !llvm.loop !21

73:                                               ; preds = %38
  %74 = load ptr, ptr %8, align 8, !tbaa !15
  %75 = load ptr, ptr %10, align 8, !tbaa !17
  %76 = load i32, ptr %13, align 4, !tbaa !8
  %77 = sext i32 %76 to i64
  %78 = getelementptr inbounds ptr, ptr %75, i64 %77
  %79 = load ptr, ptr %78, align 8, !tbaa !19
  %80 = getelementptr inbounds [5 x ptr], ptr %14, i64 0, i64 2
  %81 = load ptr, ptr %80, align 16, !tbaa !19
  %82 = getelementptr inbounds [5 x ptr], ptr %14, i64 0, i64 1
  %83 = load ptr, ptr %82, align 8, !tbaa !19
  %84 = call ptr @Cudd_bddIte(ptr noundef %74, ptr noundef %79, ptr noundef %81, ptr noundef %83)
  %85 = getelementptr inbounds [5 x ptr], ptr %14, i64 0, i64 3
  store ptr %84, ptr %85, align 8, !tbaa !19
  %86 = getelementptr inbounds [5 x ptr], ptr %14, i64 0, i64 3
  %87 = load ptr, ptr %86, align 8, !tbaa !19
  call void @Cudd_Ref(ptr noundef %87)
  %88 = load ptr, ptr %8, align 8, !tbaa !15
  %89 = getelementptr inbounds [5 x ptr], ptr %14, i64 0, i64 1
  %90 = load ptr, ptr %89, align 8, !tbaa !19
  call void @Cudd_RecursiveDeref(ptr noundef %88, ptr noundef %90)
  %91 = load ptr, ptr %8, align 8, !tbaa !15
  %92 = getelementptr inbounds [5 x ptr], ptr %14, i64 0, i64 2
  %93 = load ptr, ptr %92, align 16, !tbaa !19
  call void @Cudd_RecursiveDeref(ptr noundef %91, ptr noundef %93)
  %94 = load ptr, ptr %8, align 8, !tbaa !15
  %95 = getelementptr inbounds [5 x ptr], ptr %14, i64 0, i64 0
  %96 = load ptr, ptr %95, align 16, !tbaa !19
  %97 = getelementptr inbounds [5 x ptr], ptr %14, i64 0, i64 3
  %98 = load ptr, ptr %97, align 8, !tbaa !19
  %99 = call ptr @Cudd_bddOr(ptr noundef %94, ptr noundef %96, ptr noundef %98)
  %100 = getelementptr inbounds [5 x ptr], ptr %14, i64 0, i64 4
  store ptr %99, ptr %100, align 16, !tbaa !19
  %101 = getelementptr inbounds [5 x ptr], ptr %14, i64 0, i64 4
  %102 = load ptr, ptr %101, align 16, !tbaa !19
  call void @Cudd_Ref(ptr noundef %102)
  %103 = load ptr, ptr %8, align 8, !tbaa !15
  %104 = getelementptr inbounds [5 x ptr], ptr %14, i64 0, i64 3
  %105 = load ptr, ptr %104, align 8, !tbaa !19
  call void @Cudd_RecursiveDeref(ptr noundef %103, ptr noundef %105)
  %106 = load ptr, ptr %8, align 8, !tbaa !15
  %107 = getelementptr inbounds [5 x ptr], ptr %14, i64 0, i64 0
  %108 = load ptr, ptr %107, align 16, !tbaa !19
  call void @Cudd_RecursiveDeref(ptr noundef %106, ptr noundef %108)
  %109 = getelementptr inbounds [5 x ptr], ptr %14, i64 0, i64 4
  %110 = load ptr, ptr %109, align 16, !tbaa !19
  call void @Cudd_Deref(ptr noundef %110)
  %111 = getelementptr inbounds [5 x ptr], ptr %14, i64 0, i64 4
  %112 = load ptr, ptr %111, align 16, !tbaa !19
  store ptr %112, ptr %7, align 8
  store i32 1, ptr %18, align 4
  br label %113

113:                                              ; preds = %73, %29, %21
  call void @llvm.lifetime.end.p0(i64 4, ptr %17) #10
  call void @llvm.lifetime.end.p0(i64 4, ptr %16) #10
  call void @llvm.lifetime.end.p0(i64 12, ptr %15) #10
  call void @llvm.lifetime.end.p0(i64 40, ptr %14) #10
  %114 = load ptr, ptr %7, align 8
  ret ptr %114
}