; Function Attrs: nounwind uwtable
define ptr @Abc_ConvertSopToBdd2_rec(ptr noundef %0, ptr noundef readonly captures(none) %1, ptr noundef readonly captures(none) %2, i32 noundef %3, i32 noundef %4, i32 noundef %5) local_unnamed_addr #2 {
  %7 = alloca [5 x ptr], align 16
  %8 = alloca [3 x i32], align 4
  call void @llvm.lifetime.start.p0(i64 40, ptr nonnull %7) #17
  call void @llvm.memset.p0.i64(ptr noundef nonnull align 16 dereferenceable(40) %7, i8 0, i64 40, i1 false)
  call void @llvm.lifetime.start.p0(i64 12, ptr nonnull %8) #17
  call void @llvm.memset.p0.i64(ptr noundef nonnull align 4 dereferenceable(12) %8, i8 0, i64 12, i1 false)
  %9 = icmp eq i32 %3, 0
  br i1 %9, label %10, label %12

10:                                               ; preds = %6
  %11 = tail call ptr @Cudd_ReadLogicZero(ptr noundef %0) #17
  br label %60

12:                                               ; preds = %6
  %13 = add nsw i32 %4, -3
  %14 = icmp eq i32 %5, %13
  br i1 %14, label %15, label %17

15:                                               ; preds = %12
  %16 = tail call ptr @Cudd_ReadOne(ptr noundef %0) #17
  br label %60

17:                                               ; preds = %12
  %18 = icmp sgt i32 %3, 0
  br i1 %18, label %.lr.ph.i, label %Abc_ConvertSopToBdd2Count.exit

.lr.ph.i:                                         ; preds = %17
  %19 = getelementptr inbounds nuw i8, ptr %8, i64 8
  %20 = getelementptr inbounds nuw i8, ptr %8, i64 4
  %21 = sext i32 %4 to i64
  %22 = sext i32 %5 to i64
  %wide.trip.count.i = zext nneg i32 %3 to i64
  %invariant.gep.i = getelementptr i8, ptr %1, i64 %22
  br label %23

23:                                               ; preds = %35, %.lr.ph.i
  %24 = phi i32 [ 0, %.lr.ph.i ], [ %36, %35 ]
  %25 = phi i32 [ 0, %.lr.ph.i ], [ %37, %35 ]
  %26 = phi i32 [ 0, %.lr.ph.i ], [ %38, %35 ]
  %indvars.iv.i = phi i64 [ 0, %.lr.ph.i ], [ %indvars.iv.next.i, %35 ]
  %27 = mul nsw i64 %indvars.iv.i, %21
  %gep.i = getelementptr i8, ptr %invariant.gep.i, i64 %27
  %28 = load i8, ptr %gep.i, align 1, !tbaa !3
  switch i8 %28, label %35 [
    i8 45, label %29
    i8 48, label %31
    i8 49, label %33
  ]

29:                                               ; preds = %23
  %30 = add nsw i32 %24, 1
  br label %35

31:                                               ; preds = %23
  %32 = add nsw i32 %25, 1
  br label %35

33:                                               ; preds = %23
  %34 = add nsw i32 %26, 1
  br label %35

35:                                               ; preds = %33, %31, %29, %23
  %36 = phi i32 [ %24, %33 ], [ %24, %31 ], [ %30, %29 ], [ %24, %23 ]
  %37 = phi i32 [ %25, %33 ], [ %32, %31 ], [ %25, %29 ], [ %25, %23 ]
  %38 = phi i32 [ %34, %33 ], [ %26, %31 ], [ %26, %29 ], [ %26, %23 ]
  %indvars.iv.next.i = add nuw nsw i64 %indvars.iv.i, 1
  %exitcond.not.i = icmp eq i64 %indvars.iv.next.i, %wide.trip.count.i
  br i1 %exitcond.not.i, label %Abc_ConvertSopToBdd2Count.exit.loopexit, label %23, !llvm.loop !8

Abc_ConvertSopToBdd2Count.exit.loopexit:          ; preds = %35
  store i32 %38, ptr %19, align 4
  store i32 %37, ptr %20, align 4
  store i32 %36, ptr %8, align 4
  br label %Abc_ConvertSopToBdd2Count.exit

Abc_ConvertSopToBdd2Count.exit:                   ; preds = %Abc_ConvertSopToBdd2Count.exit.loopexit, %17
  %39 = add nsw i32 %5, 1
  br label %40

40:                                               ; preds = %Abc_ConvertSopToBdd2Count.exit, %40
  %indvars.iv = phi i64 [ 0, %Abc_ConvertSopToBdd2Count.exit ], [ %indvars.iv.next, %40 ]
  %.039 = phi i32 [ 0, %Abc_ConvertSopToBdd2Count.exit ], [ %48, %40 ]
  %41 = mul nsw i32 %.039, %4
  %42 = sext i32 %41 to i64
  %43 = getelementptr inbounds i8, ptr %1, i64 %42
  %44 = getelementptr inbounds nuw [3 x i32], ptr %8, i64 0, i64 %indvars.iv
  %45 = load i32, ptr %44, align 4, !tbaa !6
  %46 = tail call ptr @Abc_ConvertSopToBdd2_rec(ptr noundef %0, ptr noundef %43, ptr noundef %2, i32 noundef %45, i32 noundef %4, i32 noundef %39)
  %47 = getelementptr inbounds nuw [5 x ptr], ptr %7, i64 0, i64 %indvars.iv
  store ptr %46, ptr %47, align 8, !tbaa !10
  tail call void @Cudd_Ref(ptr noundef %46) #17
  %indvars.iv.next = add nuw nsw i64 %indvars.iv, 1
  %48 = add nsw i32 %45, %.039
  %exitcond.not = icmp eq i64 %indvars.iv.next, 3
  br i1 %exitcond.not, label %49, label %40, !llvm.loop !13

49:                                               ; preds = %40
  %50 = sext i32 %5 to i64
  %51 = getelementptr inbounds ptr, ptr %2, i64 %50
  %52 = load ptr, ptr %51, align 8, !tbaa !10
  %53 = getelementptr inbounds nuw i8, ptr %7, i64 16
  %54 = load ptr, ptr %53, align 16, !tbaa !10
  %55 = getelementptr inbounds nuw i8, ptr %7, i64 8
  %56 = load ptr, ptr %55, align 8, !tbaa !10
  %57 = tail call ptr @Cudd_bddIte(ptr noundef %0, ptr noundef %52, ptr noundef %54, ptr noundef %56) #17
  tail call void @Cudd_Ref(ptr noundef %57) #17
  tail call void @Cudd_RecursiveDeref(ptr noundef %0, ptr noundef %56) #17
  tail call void @Cudd_RecursiveDeref(ptr noundef %0, ptr noundef %54) #17
  %58 = load ptr, ptr %7, align 16, !tbaa !10
  %59 = tail call ptr @Cudd_bddOr(ptr noundef %0, ptr noundef %58, ptr noundef %57) #17
  tail call void @Cudd_Ref(ptr noundef %59) #17
  tail call void @Cudd_RecursiveDeref(ptr noundef %0, ptr noundef %57) #17
  tail call void @Cudd_RecursiveDeref(ptr noundef %0, ptr noundef %58) #17
  tail call void @Cudd_Deref(ptr noundef %59) #17
  br label %60

60:                                               ; preds = %49, %15, %10
  %.031 = phi ptr [ %11, %10 ], [ %16, %15 ], [ %59, %49 ]
  call void @llvm.lifetime.end.p0(i64 12, ptr nonnull %8) #17
  call void @llvm.lifetime.end.p0(i64 40, ptr nonnull %7) #17
  ret ptr %.031
}